(lp1
(lp2
I7
aI0
aI0
aI0
aa(lp3
I6
aI0
aI0
aI0
aa(lp4
I4
aI0
aI0
aI0
aa(lp5
I4
aI0
aI0
aI0
aa(lp6
I4
aI0
aI0
aI0
aa(lp7
I5
aI0
aI0
aI0
aa(lp8
I7
aI0
aI0
aI2
aa(lp9
I12
aI0
aI0
aI0
aa(lp10
I4
aI0
aI0
aI0
aa(lp11
I3
aI0
aI0
aI0
aa(lp12
I4
aI0
aI0
aI0
aa(lp13
I4
aI0
aI0
aI0
aa(lp14
I9
aI0
aI0
aI0
aa(lp15
I4
aI0
aI0
aI0
aa(lp16
I5
aI0
aI0
aI0
aa(lp17
I5
aI0
aI0
aI0
aa(lp18
I1
aI0
aI0
aI0
aa(lp19
I5
aI0
aI0
aI0
aa(lp20
I7
aI0
aI0
aI0
aa(lp21
I4
aI0
aI0
aI0
aa(lp22
I4
aI0
aI0
aI0
aa(lp23
I10
aI0
aI0
aI0
aa(lp24
I7
aI0
aI0
aI0
aa(lp25
I6
aI0
aI0
aI0
aa(lp26
I4
aI0
aI0
aI0
aa(lp27
I1
aI0
aI0
aI0
aa(lp28
I4
aI0
aI0
aI0
aa(lp29
I4
aI0
aI0
aI0
aa(lp30
I3
aI0
aI0
aI0
aa(lp31
I9
aI0
aI0
aI0
aa(lp32
I4
aI0
aI0
aI0
aa(lp33
I8
aI0
aI0
aI0
aa(lp34
I8
aI0
aI0
aI0
aa(lp35
I3
aI0
aI0
aI0
aa(lp36
I5
aI0
aI0
aI0
aa(lp37
I8
aI0
aI0
aI0
aa(lp38
I4
aI0
aI0
aI0
aa(lp39
I1
aI0
aI0
aI0
aa(lp40
I4
aI0
aI0
aI0
aa(lp41
I6
aI0
aI0
aI0
aa(lp42
I1
aI0
aI0
aI0
aa(lp43
I6
aI0
aI0
aI0
aa(lp44
I10
aI0
aI0
aI0
aa(lp45
I4
aI0
aI0
aI0
aa(lp46
I5
aI0
aI0
aI0
aa(lp47
I4
aI0
aI0
aI0
aa(lp48
I7
aI0
aI0
aI0
aa(lp49
I10
aI0
aI0
aI0
aa(lp50
I10
aI0
aI0
aI0
aa(lp51
I10
aI0
aI0
aI0
aa(lp52
I6
aI0
aI0
aI0
aa(lp53
I10
aI0
aI0
aI0
aa(lp54
I7
aI0
aI0
aI0
aa(lp55
I5
aI0
aI0
aI0
aa(lp56
I1
aI0
aI0
aI0
aa(lp57
I7
aI0
aI0
aI0
aa(lp58
I12
aI0
aI0
aI2
aa(lp59
I4
aI0
aI0
aI0
aa(lp60
I5
aI0
aI0
aI2
aa(lp61
I14
aI0
aI0
aI0
aa(lp62
I4
aI0
aI0
aI0
aa(lp63
I4
aI0
aI0
aI0
aa(lp64
I9
aI0
aI0
aI0
aa(lp65
I4
aI0
aI0
aI0
aa(lp66
I7
aI0
aI0
aI0
aa(lp67
I5
aI0
aI0
aI0
aa(lp68
I6
aI0
aI0
aI0
aa(lp69
I8
aI0
aI0
aI0
aa(lp70
I4
aI0
aI0
aI0
aa(lp71
I5
aI0
aI0
aI0
aa(lp72
I6
aI0
aI0
aI0
aa(lp73
I5
aI0
aI0
aI0
aa(lp74
I8
aI0
aI0
aI0
aa(lp75
I3
aI0
aI0
aI0
aa(lp76
I7
aI0
aI0
aI0
aa(lp77
I9
aI0
aI0
aI0
aa(lp78
I6
aI0
aI0
aI0
aa(lp79
I4
aI0
aI0
aI0
aa(lp80
I1
aI0
aI0
aI0
aa(lp81
I7
aI0
aI0
aI0
aa(lp82
I1
aI0
aI0
aI0
aa(lp83
I6
aI0
aI0
aI0
aa(lp84
I4
aI0
aI0
aI0
aa(lp85
I8
aI0
aI0
aI0
aa(lp86
I7
aI0
aI0
aI0
aa(lp87
I5
aI0
aI0
aI0
aa(lp88
I4
aI0
aI0
aI0
aa(lp89
I5
aI0
aI0
aI4
aa(lp90
I1
aI0
aI0
aI0
aa(lp91
I4
aI0
aI0
aI2
aa(lp92
I7
aI0
aI0
aI0
aa(lp93
I9
aI0
aI0
aI0
aa(lp94
I1
aI0
aI0
aI0
aa(lp95
I4
aI0
aI0
aI0
aa(lp96
I4
aI0
aI0
aI0
aa(lp97
I8
aI0
aI0
aI0
aa(lp98
I5
aI0
aI0
aI0
aa(lp99
I4
aI0
aI0
aI0
aa(lp100
I7
aI0
aI0
aI0
aa(lp101
I9
aI0
aI0
aI0
aa(lp102
I7
aI0
aI0
aI0
aa(lp103
I1
aI0
aI0
aI0
aa(lp104
I9
aI0
aI0
aI0
aa(lp105
I6
aI0
aI0
aI0
aa(lp106
I6
aI0
aI0
aI0
aa(lp107
I7
aI0
aI0
aI0
aa(lp108
I13
aI0
aI0
aI0
aa(lp109
I8
aI0
aI0
aI0
aa(lp110
I8
aI0
aI0
aI0
aa(lp111
I3
aI0
aI0
aI0
aa(lp112
I8
aI0
aI0
aI0
aa(lp113
I4
aI0
aI0
aI0
aa(lp114
I3
aI0
aI0
aI0
aa(lp115
I5
aI0
aI0
aI0
aa(lp116
I4
aI0
aI0
aI0
aa(lp117
I8
aI0
aI0
aI0
aa(lp118
I5
aI0
aI0
aI0
aa(lp119
I3
aI0
aI0
aI0
aa(lp120
I11
aI0
aI0
aI0
aa(lp121
I4
aI0
aI0
aI0
aa(lp122
I6
aI0
aI0
aI0
aa(lp123
I4
aI0
aI0
aI0
aa(lp124
I3
aI0
aI0
aI0
aa(lp125
I3
aI0
aI0
aI0
aa(lp126
I8
aI0
aI0
aI0
aa(lp127
I9
aI0
aI0
aI0
aa(lp128
I4
aI0
aI0
aI0
aa(lp129
I4
aI0
aI0
aI0
aa(lp130
I6
aI0
aI0
aI0
aa(lp131
I4
aI0
aI0
aI0
aa(lp132
I5
aI0
aI0
aI0
aa(lp133
I4
aI0
aI0
aI0
aa(lp134
I6
aI0
aI0
aI0
aa(lp135
I4
aI0
aI0
aI0
aa(lp136
I7
aI0
aI0
aI0
aa(lp137
I4
aI0
aI0
aI0
aa(lp138
I4
aI0
aI0
aI0
aa(lp139
I3
aI0
aI0
aI0
aa(lp140
I3
aI0
aI0
aI0
aa(lp141
I4
aI0
aI0
aI0
aa(lp142
I4
aI0
aI0
aI0
aa(lp143
I10
aI0
aI0
aI0
aa(lp144
I11
aI0
aI0
aI0
aa(lp145
I10
aI0
aI0
aI0
aa(lp146
I5
aI0
aI0
aI0
aa(lp147
I5
aI0
aI0
aI0
aa(lp148
I6
aI0
aI0
aI0
aa(lp149
I5
aI0
aI0
aI0
aa(lp150
I5
aI0
aI0
aI4
aa(lp151
I9
aI0
aI0
aI0
aa(lp152
I13
aI0
aI0
aI0
aa(lp153
I12
aI0
aI0
aI0
aa(lp154
I4
aI0
aI0
aI0
aa(lp155
I4
aI0
aI0
aI0
aa(lp156
I4
aI0
aI0
aI0
aa(lp157
I5
aI0
aI0
aI2
aa(lp158
I11
aI0
aI0
aI0
aa(lp159
I4
aI0
aI0
aI0
aa(lp160
I3
aI0
aI0
aI0
aa(lp161
I5
aI0
aI0
aI0
aa(lp162
I4
aI0
aI0
aI0
aa(lp163
I7
aI0
aI0
aI0
aa(lp164
I8
aI0
aI0
aI0
aa(lp165
I6
aI0
aI0
aI0
aa(lp166
I1
aI0
aI0
aI0
aa(lp167
I11
aI0
aI0
aI0
aa(lp168
I3
aI0
aI0
aI0
aa(lp169
I2
aI0
aI0
aI0
aa(lp170
I1
aI0
aI0
aI0
aa(lp171
I7
aI0
aI0
aI0
aa(lp172
I11
aI0
aI0
aI0
aa(lp173
I7
aI0
aI0
aI0
aa(lp174
I7
aI0
aI0
aI0
aa(lp175
I7
aI0
aI0
aI0
aa(lp176
I4
aI0
aI0
aI0
aa(lp177
I4
aI0
aI0
aI0
aa(lp178
I9
aI0
aI0
aI0
aa(lp179
I4
aI0
aI0
aI0
aa(lp180
I3
aI0
aI0
aI0
aa(lp181
I4
aI0
aI0
aI0
aa(lp182
I4
aI0
aI0
aI0
aa(lp183
I6
aI0
aI0
aI0
aa(lp184
I4
aI0
aI0
aI2
aa(lp185
I4
aI0
aI0
aI0
aa(lp186
I5
aI0
aI0
aI0
aa(lp187
I4
aI0
aI0
aI0
aa(lp188
I7
aI0
aI0
aI2
aa(lp189
I4
aI0
aI0
aI0
aa(lp190
I1
aI0
aI0
aI0
aa(lp191
I9
aI0
aI0
aI0
aa(lp192
I1
aI0
aI0
aI0
aa(lp193
I3
aI0
aI0
aI0
aa(lp194
I15
aI0
aI0
aI0
aa(lp195
I4
aI0
aI0
aI0
aa(lp196
I4
aI0
aI0
aI0
aa(lp197
I4
aI0
aI0
aI0
aa(lp198
I5
aI0
aI0
aI0
aa(lp199
I6
aI0
aI0
aI0
aa(lp200
I4
aI0
aI0
aI0
aa(lp201
I7
aI0
aI0
aI0
aa(lp202
I4
aI0
aI0
aI0
aa(lp203
I7
aI0
aI0
aI2
aa(lp204
I7
aI0
aI0
aI0
aa(lp205
I4
aI0
aI0
aI0
aa(lp206
I6
aI0
aI0
aI0
aa(lp207
I7
aI0
aI0
aI0
aa(lp208
I7
aI0
aI0
aI0
aa(lp209
I12
aI0
aI0
aI0
aa(lp210
I8
aI0
aI0
aI0
aa(lp211
I4
aI0
aI0
aI0
aa(lp212
I3
aI0
aI0
aI0
aa(lp213
I3
aI0
aI0
aI0
aa(lp214
I4
aI0
aI0
aI0
aa(lp215
I5
aI0
aI0
aI0
aa(lp216
I6
aI0
aI0
aI0
aa(lp217
I4
aI0
aI0
aI0
aa(lp218
I7
aI0
aI0
aI0
aa(lp219
I5
aI0
aI0
aI0
aa(lp220
I9
aI0
aI0
aI0
aa(lp221
I4
aI0
aI0
aI0
aa(lp222
I4
aI0
aI0
aI0
aa(lp223
I4
aI0
aI0
aI0
aa(lp224
I1
aI0
aI0
aI0
aa(lp225
I4
aI0
aI0
aI0
aa(lp226
I8
aI0
aI0
aI0
aa(lp227
I11
aI0
aI0
aI0
aa(lp228
I6
aI0
aI0
aI0
aa(lp229
I5
aI0
aI0
aI0
aa(lp230
I1
aI0
aI0
aI0
aa(lp231
I10
aI0
aI0
aI0
aa(lp232
I4
aI0
aI0
aI0
aa(lp233
I5
aI0
aI0
aI0
aa(lp234
I4
aI0
aI0
aI0
aa(lp235
I6
aI0
aI0
aI2
aa(lp236
I4
aI0
aI0
aI0
aa(lp237
I15
aI0
aI0
aI0
aa(lp238
I4
aI0
aI0
aI0
aa(lp239
I4
aI0
aI0
aI0
aa(lp240
I4
aI0
aI0
aI0
aa(lp241
I6
aI0
aI0
aI0
aa(lp242
I4
aI0
aI0
aI2
aa(lp243
I5
aI0
aI0
aI0
aa(lp244
I4
aI0
aI0
aI0
aa(lp245
I3
aI0
aI0
aI0
aa(lp246
I5
aI0
aI0
aI0
aa(lp247
I1
aI0
aI0
aI0
aa(lp248
I6
aI0
aI0
aI0
aa(lp249
I4
aI0
aI0
aI0
aa(lp250
I6
aI0
aI0
aI0
aa(lp251
I4
aI0
aI0
aI0
aa(lp252
I5
aI0
aI0
aI0
aa(lp253
I4
aI0
aI0
aI0
aa(lp254
I1
aI0
aI0
aI0
aa(lp255
I6
aI0
aI0
aI0
aa(lp256
I5
aI0
aI0
aI0
aa(lp257
I4
aI0
aI0
aI0
aa(lp258
I5
aI0
aI0
aI0
aa(lp259
I6
aI0
aI0
aI0
aa(lp260
I4
aI0
aI0
aI0
aa(lp261
I7
aI0
aI0
aI0
aa(lp262
I5
aI0
aI0
aI0
aa(lp263
I4
aI0
aI0
aI0
aa(lp264
I3
aI0
aI0
aI0
aa(lp265
I5
aI0
aI0
aI0
aa(lp266
I7
aI0
aI0
aI0
aa(lp267
I6
aI0
aI0
aI0
aa(lp268
I10
aI0
aI0
aI0
aa(lp269
I8
aI0
aI0
aI0
aa(lp270
I4
aI0
aI0
aI0
aa(lp271
I7
aI0
aI0
aI0
aa(lp272
I8
aI0
aI0
aI0
aa(lp273
I5
aI0
aI0
aI0
aa(lp274
I2
aI0
aI0
aI0
aa(lp275
I7
aI0
aI0
aI0
aa(lp276
I9
aI0
aI0
aI0
aa(lp277
I5
aI0
aI0
aI0
aa(lp278
I4
aI0
aI0
aI0
aa(lp279
I1
aI0
aI0
aI0
aa(lp280
I7
aI0
aI0
aI6
aa(lp281
I6
aI0
aI0
aI0
aa(lp282
I8
aI0
aI0
aI0
aa(lp283
I9
aI0
aI0
aI0
aa(lp284
I4
aI0
aI0
aI0
aa(lp285
I10
aI0
aI0
aI0
aa(lp286
I4
aI0
aI0
aI2
aa(lp287
I5
aI0
aI0
aI0
aa(lp288
I6
aI0
aI0
aI0
aa(lp289
I9
aI0
aI0
aI0
aa(lp290
I8
aI0
aI0
aI0
aa(lp291
I4
aI0
aI0
aI0
aa(lp292
I3
aI0
aI0
aI0
aa(lp293
I12
aI0
aI0
aI0
aa(lp294
I7
aI0
aI0
aI0
aa(lp295
I6
aI0
aI0
aI0
aa(lp296
I7
aI0
aI0
aI0
aa(lp297
I10
aI0
aI0
aI0
aa(lp298
I7
aI0
aI0
aI0
aa(lp299
I4
aI0
aI0
aI0
aa(lp300
I7
aI0
aI0
aI0
aa(lp301
I5
aI0
aI0
aI0
aa(lp302
I6
aI0
aI0
aI0
aa(lp303
I11
aI0
aI0
aI0
aa(lp304
I9
aI0
aI0
aI0
aa(lp305
I17
aI0
aI0
aI0
aa(lp306
I7
aI0
aI0
aI0
aa(lp307
I3
aI0
aI0
aI0
aa(lp308
I8
aI0
aI0
aI0
aa(lp309
I5
aI0
aI0
aI0
aa(lp310
I4
aI0
aI0
aI0
aa(lp311
I7
aI0
aI0
aI2
aa(lp312
I8
aI0
aI0
aI0
aa(lp313
I4
aI0
aI0
aI0
aa(lp314
I4
aI0
aI0
aI0
aa(lp315
I4
aI0
aI0
aI0
aa(lp316
I1
aI0
aI0
aI0
aa(lp317
I8
aI0
aI0
aI0
aa(lp318
I4
aI0
aI0
aI0
aa(lp319
I1
aI0
aI0
aI0
aa(lp320
I4
aI0
aI0
aI0
aa(lp321
I4
aI0
aI0
aI0
aa(lp322
I6
aI0
aI0
aI0
aa(lp323
I9
aI0
aI0
aI0
aa(lp324
I4
aI0
aI0
aI0
aa(lp325
I5
aI0
aI0
aI0
aa(lp326
I14
aI0
aI0
aI0
aa(lp327
I8
aI0
aI0
aI0
aa(lp328
I6
aI0
aI0
aI0
aa(lp329
I8
aI0
aI0
aI0
aa(lp330
I7
aI0
aI0
aI0
aa(lp331
I8
aI0
aI0
aI0
aa(lp332
I4
aI0
aI0
aI0
aa(lp333
I3
aI0
aI0
aI0
aa(lp334
I3
aI0
aI0
aI0
aa(lp335
I7
aI0
aI0
aI0
aa(lp336
I6
aI0
aI0
aI0
aa(lp337
I1
aI0
aI0
aI0
aa(lp338
I4
aI0
aI0
aI0
aa(lp339
I1
aI0
aI0
aI0
aa(lp340
I6
aI0
aI0
aI2
aa(lp341
I7
aI0
aI0
aI0
aa(lp342
I4
aI0
aI0
aI0
aa(lp343
I4
aI0
aI0
aI0
aa(lp344
I7
aI0
aI0
aI0
aa(lp345
I4
aI0
aI0
aI0
aa(lp346
I3
aI0
aI0
aI0
aa(lp347
I4
aI0
aI0
aI0
aa(lp348
I4
aI0
aI0
aI0
aa(lp349
I7
aI0
aI0
aI2
aa(lp350
I3
aI0
aI0
aI0
aa(lp351
I8
aI0
aI0
aI0
aa(lp352
I7
aI0
aI0
aI0
aa(lp353
I8
aI0
aI0
aI0
aa(lp354
I3
aI0
aI0
aI0
aa(lp355
I7
aI0
aI0
aI0
aa(lp356
I8
aI0
aI0
aI0
aa(lp357
I4
aI0
aI0
aI0
aa(lp358
I14
aI0
aI0
aI0
aa(lp359
I4
aI0
aI0
aI4
aa(lp360
I1
aI0
aI0
aI0
aa(lp361
I10
aI0
aI0
aI0
aa(lp362
I6
aI0
aI0
aI0
aa(lp363
I7
aI0
aI0
aI0
aa(lp364
I6
aI0
aI0
aI0
aa(lp365
I5
aI0
aI0
aI0
aa(lp366
I3
aI0
aI0
aI0
aa(lp367
I4
aI0
aI0
aI0
aa(lp368
I2
aI0
aI0
aI0
aa(lp369
I3
aI0
aI0
aI0
aa(lp370
I6
aI0
aI0
aI0
aa(lp371
I7
aI0
aI0
aI0
aa(lp372
I7
aI0
aI0
aI0
aa(lp373
I9
aI0
aI0
aI0
aa(lp374
I5
aI0
aI0
aI0
aa(lp375
I5
aI0
aI0
aI0
aa(lp376
I4
aI0
aI0
aI0
aa(lp377
I3
aI0
aI0
aI0
aa(lp378
I1
aI0
aI0
aI0
aa(lp379
I10
aI0
aI0
aI0
aa(lp380
I4
aI0
aI0
aI0
aa(lp381
I4
aI0
aI0
aI0
aa(lp382
I6
aI0
aI0
aI0
aa(lp383
I4
aI0
aI0
aI0
aa(lp384
I7
aI0
aI0
aI0
aa(lp385
I4
aI0
aI0
aI0
aa(lp386
I7
aI0
aI0
aI0
aa(lp387
I4
aI0
aI0
aI0
aa(lp388
I8
aI0
aI0
aI0
aa(lp389
I6
aI0
aI0
aI0
aa(lp390
I9
aI0
aI0
aI0
aa(lp391
I7
aI0
aI0
aI0
aa(lp392
I8
aI0
aI0
aI0
aa(lp393
I5
aI0
aI0
aI0
aa(lp394
I5
aI0
aI0
aI0
aa(lp395
I1
aI0
aI0
aI0
aa(lp396
I13
aI0
aI0
aI0
aa(lp397
I5
aI0
aI0
aI0
aa(lp398
I3
aI0
aI0
aI0
aa(lp399
I11
aI0
aI0
aI0
aa(lp400
I7
aI0
aI0
aI0
aa(lp401
I6
aI0
aI0
aI0
aa(lp402
I1
aI0
aI0
aI0
aa(lp403
I7
aI0
aI0
aI0
aa(lp404
I6
aI0
aI0
aI0
aa(lp405
I4
aI0
aI0
aI0
aa(lp406
I4
aI0
aI0
aI0
aa(lp407
I4
aI0
aI0
aI0
aa(lp408
I7
aI0
aI0
aI0
aa(lp409
I7
aI0
aI0
aI0
aa(lp410
I7
aI0
aI0
aI0
aa(lp411
I12
aI0
aI0
aI0
aa(lp412
I9
aI0
aI0
aI0
aa(lp413
I4
aI0
aI0
aI0
aa(lp414
I8
aI0
aI0
aI0
aa(lp415
I3
aI0
aI0
aI0
aa(lp416
I6
aI0
aI0
aI0
aa(lp417
I10
aI0
aI0
aI0
aa(lp418
I7
aI0
aI0
aI0
aa(lp419
I12
aI0
aI0
aI0
aa(lp420
I1
aI0
aI0
aI0
aa(lp421
I6
aI0
aI0
aI0
aa(lp422
I4
aI0
aI0
aI0
aa(lp423
I1
aI0
aI0
aI0
aa(lp424
I11
aI0
aI0
aI0
aa(lp425
I4
aI0
aI0
aI2
aa(lp426
I7
aI0
aI0
aI0
aa(lp427
I11
aI0
aI0
aI0
aa(lp428
I7
aI0
aI0
aI0
aa(lp429
I1
aI0
aI0
aI0
aa(lp430
I7
aI0
aI0
aI0
aa(lp431
I4
aI0
aI0
aI0
aa(lp432
I4
aI0
aI0
aI0
aa(lp433
I4
aI0
aI0
aI0
aa(lp434
I2
aI0
aI0
aI0
aa(lp435
I4
aI0
aI0
aI0
aa(lp436
I6
aI0
aI0
aI0
aa(lp437
I5
aI0
aI0
aI0
aa(lp438
I7
aI0
aI0
aI0
aa(lp439
I10
aI0
aI0
aI0
aa(lp440
I4
aI0
aI0
aI0
aa(lp441
I4
aI0
aI0
aI0
aa(lp442
I4
aI0
aI0
aI0
aa(lp443
I9
aI0
aI0
aI0
aa(lp444
I9
aI0
aI0
aI0
aa(lp445
I5
aI0
aI0
aI0
aa(lp446
I16
aI0
aI0
aI0
aa(lp447
I7
aI0
aI0
aI10
aa(lp448
I9
aI0
aI0
aI4
aa(lp449
I4
aI0
aI0
aI0
aa(lp450
I1
aI0
aI0
aI0
aa(lp451
I6
aI0
aI0
aI0
aa(lp452
I3
aI0
aI0
aI0
aa(lp453
I5
aI0
aI0
aI0
aa(lp454
I4
aI0
aI0
aI0
aa(lp455
I4
aI0
aI0
aI0
aa(lp456
I5
aI0
aI0
aI0
aa(lp457
I4
aI0
aI0
aI0
aa(lp458
I7
aI0
aI0
aI0
aa(lp459
I5
aI0
aI0
aI0
aa(lp460
I8
aI0
aI0
aI0
aa(lp461
I12
aI0
aI0
aI0
aa(lp462
I5
aI0
aI0
aI0
aa(lp463
I1
aI0
aI0
aI0
aa(lp464
I4
aI0
aI0
aI0
aa(lp465
I4
aI0
aI0
aI0
aa(lp466
I5
aI0
aI0
aI2
aa(lp467
I8
aI0
aI0
aI2
aa(lp468
I6
aI0
aI0
aI0
aa(lp469
I7
aI0
aI0
aI0
aa(lp470
I4
aI0
aI0
aI0
aa(lp471
I6
aI0
aI0
aI0
aa(lp472
I3
aI0
aI0
aI0
aa(lp473
I6
aI0
aI0
aI0
aa(lp474
I3
aI0
aI0
aI0
aa(lp475
I7
aI0
aI0
aI0
aa(lp476
I7
aI0
aI0
aI0
aa(lp477
I6
aI0
aI0
aI0
aa(lp478
I6
aI0
aI0
aI2
aa(lp479
I7
aI0
aI0
aI0
aa(lp480
I3
aI0
aI0
aI0
aa(lp481
I4
aI0
aI0
aI0
aa(lp482
I1
aI0
aI0
aI0
aa(lp483
I4
aI0
aI0
aI0
aa(lp484
I6
aI0
aI0
aI0
aa(lp485
I3
aI0
aI0
aI0
aa(lp486
I6
aI0
aI0
aI0
aa(lp487
I8
aI0
aI0
aI0
aa(lp488
I9
aI0
aI0
aI0
aa(lp489
I3
aI0
aI0
aI0
aa(lp490
I7
aI0
aI0
aI0
aa(lp491
I12
aI0
aI0
aI0
aa(lp492
I7
aI0
aI0
aI0
aa(lp493
I4
aI0
aI0
aI0
aa(lp494
I4
aI0
aI0
aI0
aa(lp495
I6
aI0
aI0
aI0
aa(lp496
I6
aI0
aI0
aI0
aa(lp497
I5
aI0
aI0
aI0
aa(lp498
I3
aI0
aI0
aI0
aa(lp499
I3
aI0
aI0
aI0
aa(lp500
I4
aI0
aI0
aI0
aa(lp501
I4
aI0
aI0
aI0
aa(lp502
I9
aI0
aI0
aI0
aa(lp503
I4
aI0
aI0
aI0
aa(lp504
I4
aI0
aI0
aI0
aa(lp505
I4
aI0
aI0
aI0
aa(lp506
I7
aI0
aI0
aI0
aa(lp507
I4
aI0
aI0
aI0
aa(lp508
I4
aI0
aI0
aI0
aa(lp509
I4
aI0
aI0
aI0
aa(lp510
I7
aI0
aI0
aI0
aa(lp511
I10
aI0
aI0
aI0
aa(lp512
I2
aI0
aI0
aI0
aa(lp513
I5
aI0
aI0
aI0
aa(lp514
I4
aI0
aI0
aI0
aa(lp515
I4
aI0
aI0
aI0
aa(lp516
I4
aI0
aI0
aI0
aa(lp517
I6
aI0
aI0
aI0
aa(lp518
I14
aI0
aI0
aI0
aa(lp519
I10
aI0
aI0
aI0
aa(lp520
I8
aI0
aI0
aI2
aa(lp521
I4
aI0
aI0
aI0
aa(lp522
I4
aI0
aI0
aI0
aa(lp523
I5
aI0
aI0
aI0
aa(lp524
I13
aI0
aI0
aI0
aa(lp525
I4
aI0
aI0
aI0
aa(lp526
I10
aI0
aI0
aI0
aa(lp527
I6
aI0
aI0
aI0
aa(lp528
I5
aI0
aI0
aI0
aa(lp529
I5
aI0
aI0
aI0
aa(lp530
I7
aI0
aI0
aI4
aa(lp531
I6
aI0
aI0
aI0
aa(lp532
I3
aI0
aI0
aI0
aa(lp533
I9
aI0
aI0
aI0
aa(lp534
I13
aI0
aI0
aI0
aa(lp535
I4
aI0
aI0
aI0
aa(lp536
I9
aI0
aI0
aI0
aa(lp537
I3
aI0
aI0
aI0
aa(lp538
I9
aI0
aI0
aI0
aa.